target datalayout = "e-m:e-p270:32:32-p271:32:32-p272:64:64-i64:64-i128:128-f80:128-n8:16:32:64-S128"
target triple = "x86_64-pc-linux-gnu"

@.str.13 = private unnamed_addr constant [43 x i8] c"Io_ReadBaf: The network check has failed.\0A\00", align 1

; Function Attrs: nounwind uwtable
define ptr @Io_ReadBblif(ptr noundef %0, i32 noundef %1) #0 {
  %3 = alloca ptr, align 8
  %4 = alloca ptr, align 8
  %5 = alloca i32, align 4
  %6 = alloca ptr, align 8
  %7 = alloca ptr, align 8
  %8 = alloca i32, align 4
  store ptr %0, ptr %4, align 8, !tbaa !58
  store i32 %1, ptr %5, align 4, !tbaa !38
  call void @llvm.lifetime.start.p0(i64 8, ptr %6) #11
  call void @llvm.lifetime.start.p0(i64 8, ptr %7) #11
  %9 = load ptr, ptr %4, align 8, !tbaa !58
  %10 = call ptr @Bbl_ManReadBinaryBlif(ptr noundef %9)
  store ptr %10, ptr %6, align 8, !tbaa !3
  %11 = load ptr, ptr %6, align 8, !tbaa !3
  %12 = call ptr @Bbl_ManToAig(ptr noundef %11)
  store ptr %12, ptr %7, align 8, !tbaa !10
  %13 = load ptr, ptr %6, align 8, !tbaa !3
  call void @Bbl_ManStop(ptr noundef %13)
  %14 = load i32, ptr %5, align 4, !tbaa !38
  %15 = icmp ne i32 %14, 0
  br i1 %15, label %16, label %23

16:                                               ; preds = %2
  %17 = load ptr, ptr %7, align 8, !tbaa !10
  %18 = call i32 @Abc_NtkCheckRead(ptr noundef %17)
  %19 = icmp ne i32 %18, 0
  br i1 %19, label %23, label %20

20:                                               ; preds = %16
  %21 = call i32 (ptr, ...) @printf(ptr noundef @.str.13)
  %22 = load ptr, ptr %7, align 8, !tbaa !10
  call void @Abc_NtkDelete(ptr noundef %22)
  store ptr null, ptr %3, align 8
  store i32 1, ptr %8, align 4
  br label %25

23:                                               ; preds = %16, %2
  %24 = load ptr, ptr %7, align 8, !tbaa !10
  store ptr %24, ptr %3, align 8
  store i32 1, ptr %8, align 4
  br label %25

25:                                               ; preds = %23, %20
  call void @llvm.lifetime.end.p0(i64 8, ptr %7) #11
  call void @llvm.lifetime.end.p0(i64 8, ptr %6) #11
  %26 = load ptr, ptr %3, align 8
  ret ptr %26
}