; Function Attrs: nounwind uwtable
define ptr @Io_ReadBblif(ptr noundef %0, i32 noundef %1) local_unnamed_addr #0 {
  %3 = tail call ptr @Bbl_ManReadBinaryBlif(ptr noundef %0) #14
  %4 = tail call ptr @Bbl_ManToAig(ptr noundef %3)
  tail call void @Bbl_ManStop(ptr noundef %3) #14
  %.not = icmp eq i32 %1, 0
  br i1 %.not, label %8, label %5

5:                                                ; preds = %2
  %6 = tail call i32 @Abc_NtkCheckRead(ptr noundef %4) #14
  %.not7 = icmp eq i32 %6, 0
  br i1 %.not7, label %7, label %8

7:                                                ; preds = %5
  %puts = tail call i32 @puts(ptr nonnull dereferenceable(1) @str.2)
  tail call void @Abc_NtkDelete(ptr noundef %4) #14
  br label %8

8:                                                ; preds = %2, %5, %7
  %.0 = phi ptr [ null, %7 ], [ %4, %5 ], [ %4, %2 ]
  ret ptr %.0
}